(dp0
S'engine'
p1
Vpdflatex
p2
sS'packages'
p3
c__builtin__
set
p4
((lp5
S'url'
p6
aS'hyperref'
p7
aS'graphicx'
p8
aS'iclr2015'
p9
aS'times'
p10
atp11
Rp12
sS'files_with_guttermarks'
p13
g4
((lp14
S'LIDAR_Video_2.tex'
p15
aS'/Users/vivekv/Documents/papers/LIDAR_ICLR/./LIDAR_Video_2.tex'
p16
atp17
Rp18
sS'synctex'
p19
I01
s.