(dp0
S'engine'
p1
Vpdflatex
p2
sS'packages'
p3
c__builtin__
set
p4
((lp5
S'url'
p6
aS'hyperref'
p7
aS'graphicx'
p8
aS'iclr2015'
p9
aS'times'
p10
atp11
Rp12
sS'files_with_guttermarks'
p13
g4
((lp14
S'LVF_iclr2015_v1.tex'
p15
atp16
Rp17
sS'synctex'
p18
I01
s.