(dp0
S'engine'
p1
Vpdflatex
p2
sS'packages'
p3
c__builtin__
set
p4
((lp5
S'hyperref'
p6
aS'subfigure'
p7
aS'gensymb'
p8
aS'iclr2015'
p9
aS'url'
p10
aS'times'
p11
aS'amsmath'
p12
aS'fixltx2e'
p13
aS'amsfonts'
p14
aS'graphicx'
p15
aS'amssymb'
p16
atp17
Rp18
sS'files_with_guttermarks'
p19
g4
((lp20
S'/Users/vivekv/Documents/papers/LIDAR_ICLR/LVF_iclr2015_v1.tex'
p21
aS'LVF_iclr2015_v1.tex'
p22
atp23
Rp24
sS'synctex'
p25
I01
s.