(dp0
S'engine'
p1
Vpdflatex
p2
sS'packages'
p3
c__builtin__
set
p4
((lp5
S'hyperref'
p6
aS'gensymb'
p7
aS'iclr2015'
p8
aS'url'
p9
aS'times'
p10
aS'amsmath'
p11
aS'fixltx2e'
p12
aS'amsfonts'
p13
aS'graphicx'
p14
aS'amssymb'
p15
atp16
Rp17
sS'files_with_guttermarks'
p18
g4
((lp19
S'/Users/vivekv/Documents/papers/LIDAR_ICLR/LVF_iclr2015_v1.tex'
p20
aS'LVF_iclr2015_v1.tex'
p21
atp22
Rp23
sS'synctex'
p24
I01
s.